; ModuleID = '45/96.c'
source_filename = "45/96.c"
target datalayout = "e-m:e-p270:32:32-p271:32:32-p272:64:64-i64:64-f80:128-n8:16:32:64-S128"
target triple = "x86_64-pc-linux-gnu"

@.str = private unnamed_addr constant [6 x i8] c"%s %s\00", align 1
@.str.1 = private unnamed_addr constant [4 x i8] c"%d\0A\00", align 1

; Function Attrs: noinline nounwind uwtable
define dso_local i32 @main(i32 %0, i8** %1) #0 {
  %3 = alloca i32, align 4
  %4 = alloca i32, align 4
  %5 = alloca i8**, align 8
  %6 = alloca [50 x i8], align 16
  %7 = alloca [50 x i8], align 16
  %8 = alloca i32, align 4
  %9 = alloca i32, align 4
  %10 = alloca i32, align 4
  store i32 0, i32* %3, align 4
  store i32 %0, i32* %4, align 4
  store i8** %1, i8*** %5, align 8
  %11 = getelementptr inbounds [50 x i8], [50 x i8]* %6, i64 0, i64 0
  %12 = getelementptr inbounds [50 x i8], [50 x i8]* %7, i64 0, i64 0
  %13 = call i32 (i8*, ...) @__isoc99_scanf(i8* getelementptr inbounds ([6 x i8], [6 x i8]* @.str, i64 0, i64 0), i8* %11, i8* %12)
  store i32 0, i32* %10, align 4
  store i32 0, i32* %8, align 4
  br label %14

14:                                               ; preds = %64, %2
  %15 = load i32, i32* %8, align 4
  %16 = icmp slt i32 %15, 50
  br i1 %16, label %17, label %67

17:                                               ; preds = %14
  %18 = getelementptr inbounds [50 x i8], [50 x i8]* %6, i64 0, i64 0
  %19 = load i8, i8* %18, align 16
  %20 = sext i8 %19 to i32
  %21 = load i32, i32* %8, align 4
  %22 = sext i32 %21 to i64
  %23 = getelementptr inbounds [50 x i8], [50 x i8]* %7, i64 0, i64 %22
  %24 = load i8, i8* %23, align 1
  %25 = sext i8 %24 to i32
  %26 = icmp eq i32 %20, %25
  br i1 %26, label %27, label %63

27:                                               ; preds = %17
  %28 = load i32, i32* %8, align 4
  store i32 %28, i32* %9, align 4
  br label %29

29:                                               ; preds = %59, %27
  %30 = load i32, i32* %9, align 4
  %31 = icmp slt i32 %30, 50
  br i1 %31, label %32, label %62

32:                                               ; preds = %29
  %33 = load i32, i32* %9, align 4
  %34 = sext i32 %33 to i64
  %35 = getelementptr inbounds [50 x i8], [50 x i8]* %6, i64 0, i64 %34
  %36 = load i8, i8* %35, align 1
  %37 = sext i8 %36 to i32
  %38 = icmp ne i32 %37, 0
  br i1 %38, label %46, label %39

39:                                               ; preds = %32
  %40 = load i32, i32* %10, align 4
  %41 = sext i32 %40 to i64
  %42 = getelementptr inbounds [50 x i8], [50 x i8]* %6, i64 0, i64 %41
  %43 = load i8, i8* %42, align 1
  %44 = sext i8 %43 to i32
  %45 = icmp ne i32 %44, 0
  br label %46

46:                                               ; preds = %39, %32
  %47 = phi i1 [ true, %32 ], [ %45, %39 ]
  %48 = zext i1 %47 to i32
  %49 = trunc i32 %48 to i8
  %50 = load i32, i32* %10, align 4
  %51 = add nsw i32 %50, 1
  store i32 %51, i32* %10, align 4
  %52 = sext i32 %50 to i64
  %53 = getelementptr inbounds [50 x i8], [50 x i8]* %6, i64 0, i64 %52
  store i8 %49, i8* %53, align 1
  %54 = icmp ne i8 %49, 0
  br i1 %54, label %55, label %58

55:                                               ; preds = %46
  %56 = load i32, i32* %8, align 4
  %57 = call i32 (i8*, ...) @printf(i8* getelementptr inbounds ([4 x i8], [4 x i8]* @.str.1, i64 0, i64 0), i32 %56)
  br label %62

58:                                               ; preds = %46
  br label %59

59:                                               ; preds = %58
  %60 = load i32, i32* %9, align 4
  %61 = add nsw i32 %60, 1
  store i32 %61, i32* %9, align 4
  br label %29

62:                                               ; preds = %55, %29
  br label %63

63:                                               ; preds = %62, %17
  br label %64

64:                                               ; preds = %63
  %65 = load i32, i32* %8, align 4
  %66 = add nsw i32 %65, 1
  store i32 %66, i32* %8, align 4
  br label %14

67:                                               ; preds = %14
  ret i32 0
}

declare dso_local i32 @__isoc99_scanf(i8*, ...) #1

declare dso_local i32 @printf(i8*, ...) #1


!llvm.module.flags = !{!0}
!llvm.ident = !{!1}

!0 = !{i32 1, !"wchar_size", i32 4}
!1 = !{!"clang version 10.0.0-4ubuntu1 "}
